target datalayout = "e-m:e-p270:32:32-p271:32:32-p272:64:64-i64:64-i128:128-f80:128-n8:16:32:64-S128"
target triple = "x86_64-pc-linux-gnu"

%struct.ASN1_TEMPLATE_st = type { i64, i64, i64, ptr, ptr }
%struct.ASN1_ADB_st = type { i64, i64, ptr, ptr, i64, ptr, ptr }
%struct.ASN1_ADB_TABLE_st = type { i64, %struct.ASN1_TEMPLATE_st }

@.str = private unnamed_addr constant [34 x i8] c"../openssl/crypto/asn1/tasn_utl.c\00", align 1
@__func__.ossl_asn1_do_adb = private unnamed_addr constant [17 x i8] c"ossl_asn1_do_adb\00", align 1

; Function Attrs: nounwind uwtable
define ptr @ossl_asn1_do_adb(ptr noundef %0, ptr noundef %1, i32 noundef %2) #0 {
  %4 = alloca ptr, align 8
  %5 = alloca ptr, align 8
  %6 = alloca ptr, align 8
  %7 = alloca i32, align 4
  %8 = alloca ptr, align 8
  %9 = alloca ptr, align 8
  %10 = alloca i64, align 8
  %11 = alloca ptr, align 8
  %12 = alloca i32, align 4
  %13 = alloca i32, align 4
  store ptr %0, ptr %5, align 8, !tbaa !10
  store ptr %1, ptr %6, align 8, !tbaa !42
  store i32 %2, ptr %7, align 4, !tbaa !19
  call void @llvm.lifetime.start.p0(i64 8, ptr %8) #5
  call void @llvm.lifetime.start.p0(i64 8, ptr %9) #5
  call void @llvm.lifetime.start.p0(i64 8, ptr %10) #5
  call void @llvm.lifetime.start.p0(i64 8, ptr %11) #5
  call void @llvm.lifetime.start.p0(i64 4, ptr %12) #5
  %14 = load ptr, ptr %6, align 8, !tbaa !42
  %15 = getelementptr inbounds nuw %struct.ASN1_TEMPLATE_st, ptr %14, i32 0, i32 0
  %16 = load i64, ptr %15, align 8, !tbaa !45
  %17 = and i64 %16, 768
  %18 = icmp eq i64 %17, 0
  br i1 %18, label %19, label %21

19:                                               ; preds = %3
  %20 = load ptr, ptr %6, align 8, !tbaa !42
  store ptr %20, ptr %4, align 8
  store i32 1, ptr %13, align 4
  br label %112

21:                                               ; preds = %3
  %22 = load ptr, ptr %6, align 8, !tbaa !42
  %23 = getelementptr inbounds nuw %struct.ASN1_TEMPLATE_st, ptr %22, i32 0, i32 4
  %24 = load ptr, ptr %23, align 8, !tbaa !46
  %25 = call ptr %24()
  store ptr %25, ptr %8, align 8, !tbaa !47
  %26 = load ptr, ptr %5, align 8, !tbaa !10
  %27 = load ptr, ptr %8, align 8, !tbaa !47
  %28 = getelementptr inbounds nuw %struct.ASN1_ADB_st, ptr %27, i32 0, i32 1
  %29 = load i64, ptr %28, align 8, !tbaa !49
  %30 = getelementptr inbounds nuw i8, ptr %26, i64 %29
  store ptr %30, ptr %11, align 8, !tbaa !3
  %31 = load ptr, ptr %11, align 8, !tbaa !3
  %32 = load ptr, ptr %31, align 8, !tbaa !10
  %33 = icmp eq ptr %32, null
  br i1 %33, label %34, label %44

34:                                               ; preds = %21
  %35 = load ptr, ptr %8, align 8, !tbaa !47
  %36 = getelementptr inbounds nuw %struct.ASN1_ADB_st, ptr %35, i32 0, i32 6
  %37 = load ptr, ptr %36, align 8, !tbaa !52
  %38 = icmp eq ptr %37, null
  br i1 %38, label %39, label %40

39:                                               ; preds = %34
  br label %107

40:                                               ; preds = %34
  %41 = load ptr, ptr %8, align 8, !tbaa !47
  %42 = getelementptr inbounds nuw %struct.ASN1_ADB_st, ptr %41, i32 0, i32 6
  %43 = load ptr, ptr %42, align 8, !tbaa !52
  store ptr %43, ptr %4, align 8
  store i32 1, ptr %13, align 4
  br label %112

44:                                               ; preds = %21
  %45 = load ptr, ptr %6, align 8, !tbaa !42
  %46 = getelementptr inbounds nuw %struct.ASN1_TEMPLATE_st, ptr %45, i32 0, i32 0
  %47 = load i64, ptr %46, align 8, !tbaa !45
  %48 = and i64 %47, 256
  %49 = icmp ne i64 %48, 0
  br i1 %49, label %50, label %55

50:                                               ; preds = %44
  %51 = load ptr, ptr %11, align 8, !tbaa !3
  %52 = load ptr, ptr %51, align 8, !tbaa !10
  %53 = call i32 @OBJ_obj2nid(ptr noundef %52)
  %54 = sext i32 %53 to i64
  store i64 %54, ptr %10, align 8, !tbaa !53
  br label %59

55:                                               ; preds = %44
  %56 = load ptr, ptr %11, align 8, !tbaa !3
  %57 = load ptr, ptr %56, align 8, !tbaa !10
  %58 = call i64 @ASN1_INTEGER_get(ptr noundef %57)
  store i64 %58, ptr %10, align 8, !tbaa !53
  br label %59

59:                                               ; preds = %55, %50
  %60 = load ptr, ptr %8, align 8, !tbaa !47
  %61 = getelementptr inbounds nuw %struct.ASN1_ADB_st, ptr %60, i32 0, i32 2
  %62 = load ptr, ptr %61, align 8, !tbaa !54
  %63 = icmp ne ptr %62, null
  br i1 %63, label %64, label %71

64:                                               ; preds = %59
  %65 = load ptr, ptr %8, align 8, !tbaa !47
  %66 = getelementptr inbounds nuw %struct.ASN1_ADB_st, ptr %65, i32 0, i32 2
  %67 = load ptr, ptr %66, align 8, !tbaa !54
  %68 = call i32 %67(ptr noundef %10)
  %69 = icmp eq i32 %68, 0
  br i1 %69, label %70, label %71

70:                                               ; preds = %64
  call void @ERR_new()
  call void @ERR_set_debug(ptr noundef @.str, i32 noundef 261, ptr noundef @__func__.ossl_asn1_do_adb)
  call void (i32, i32, ptr, ...) @ERR_set_error(i32 noundef 13, i32 noundef 164, ptr noundef null)
  store ptr null, ptr %4, align 8
  store i32 1, ptr %13, align 4
  br label %112

71:                                               ; preds = %64, %59
  %72 = load ptr, ptr %8, align 8, !tbaa !47
  %73 = getelementptr inbounds nuw %struct.ASN1_ADB_st, ptr %72, i32 0, i32 3
  %74 = load ptr, ptr %73, align 8, !tbaa !55
  store ptr %74, ptr %9, align 8, !tbaa !56
  store i32 0, ptr %12, align 4, !tbaa !19
  br label %75

75:                                               ; preds = %92, %71
  %76 = load i32, ptr %12, align 4, !tbaa !19
  %77 = sext i32 %76 to i64
  %78 = load ptr, ptr %8, align 8, !tbaa !47
  %79 = getelementptr inbounds nuw %struct.ASN1_ADB_st, ptr %78, i32 0, i32 4
  %80 = load i64, ptr %79, align 8, !tbaa !57
  %81 = icmp slt i64 %77, %80
  br i1 %81, label %82, label %97

82:                                               ; preds = %75
  %83 = load ptr, ptr %9, align 8, !tbaa !56
  %84 = getelementptr inbounds nuw %struct.ASN1_ADB_TABLE_st, ptr %83, i32 0, i32 0
  %85 = load i64, ptr %84, align 8, !tbaa !58
  %86 = load i64, ptr %10, align 8, !tbaa !53
  %87 = icmp eq i64 %85, %86
  br i1 %87, label %88, label %91

88:                                               ; preds = %82
  %89 = load ptr, ptr %9, align 8, !tbaa !56
  %90 = getelementptr inbounds nuw %struct.ASN1_ADB_TABLE_st, ptr %89, i32 0, i32 1
  store ptr %90, ptr %4, align 8
  store i32 1, ptr %13, align 4
  br label %112

91:                                               ; preds = %82
  br label %92

92:                                               ; preds = %91
  %93 = load i32, ptr %12, align 4, !tbaa !19
  %94 = add nsw i32 %93, 1
  store i32 %94, ptr %12, align 4, !tbaa !19
  %95 = load ptr, ptr %9, align 8, !tbaa !56
  %96 = getelementptr inbounds nuw %struct.ASN1_ADB_TABLE_st, ptr %95, i32 1
  store ptr %96, ptr %9, align 8, !tbaa !56
  br label %75, !llvm.loop !60

97:                                               ; preds = %75
  %98 = load ptr, ptr %8, align 8, !tbaa !47
  %99 = getelementptr inbounds nuw %struct.ASN1_ADB_st, ptr %98, i32 0, i32 5
  %100 = load ptr, ptr %99, align 8, !tbaa !62
  %101 = icmp ne ptr %100, null
  br i1 %101, label %103, label %102

102:                                              ; preds = %97
  br label %107

103:                                              ; preds = %97
  %104 = load ptr, ptr %8, align 8, !tbaa !47
  %105 = getelementptr inbounds nuw %struct.ASN1_ADB_st, ptr %104, i32 0, i32 5
  %106 = load ptr, ptr %105, align 8, !tbaa !62
  store ptr %106, ptr %4, align 8
  store i32 1, ptr %13, align 4
  br label %112

107:                                              ; preds = %102, %39
  %108 = load i32, ptr %7, align 4, !tbaa !19
  %109 = icmp ne i32 %108, 0
  br i1 %109, label %110, label %111

110:                                              ; preds = %107
  call void @ERR_new()
  call void @ERR_set_debug(ptr noundef @.str, i32 noundef 286, ptr noundef @__func__.ossl_asn1_do_adb)
  call void (i32, i32, ptr, ...) @ERR_set_error(i32 noundef 13, i32 noundef 164, ptr noundef null)
  br label %111

111:                                              ; preds = %110, %107
  store ptr null, ptr %4, align 8
  store i32 1, ptr %13, align 4
  br label %112

112:                                              ; preds = %111, %103, %88, %70, %40, %19
  call void @llvm.lifetime.end.p0(i64 4, ptr %12) #5
  call void @llvm.lifetime.end.p0(i64 8, ptr %11) #5
  call void @llvm.lifetime.end.p0(i64 8, ptr %10) #5
  call void @llvm.lifetime.end.p0(i64 8, ptr %9) #5
  call void @llvm.lifetime.end.p0(i64 8, ptr %8) #5
  %113 = load ptr, ptr %4, align 8
  ret ptr %113
}