; Function Attrs: nounwind uwtable
define ptr @ossl_asn1_do_adb(ptr noundef readonly captures(none) %0, ptr noundef readonly captures(ret: address, provenance) %1, i32 noundef %2) local_unnamed_addr #3 {
  %4 = alloca i64, align 8
  call void @llvm.lifetime.start.p0(i64 8, ptr nonnull %4) #8
  %5 = load i64, ptr %1, align 8, !tbaa !32
  %6 = and i64 %5, 768
  %7 = icmp eq i64 %6, 0
  br i1 %7, label %54, label %8

8:                                                ; preds = %3
  %9 = getelementptr inbounds nuw i8, ptr %1, i64 32
  %10 = load ptr, ptr %9, align 8, !tbaa !33
  %11 = tail call ptr %10() #8
  %12 = getelementptr inbounds nuw i8, ptr %11, i64 8
  %13 = load i64, ptr %12, align 8, !tbaa !34
  %14 = getelementptr inbounds nuw i8, ptr %0, i64 %13
  %15 = load ptr, ptr %14, align 8, !tbaa !3
  %16 = icmp eq ptr %15, null
  br i1 %16, label %17, label %21

17:                                               ; preds = %8
  %18 = getelementptr inbounds nuw i8, ptr %11, i64 48
  %19 = load ptr, ptr %18, align 8, !tbaa !37
  %20 = icmp eq ptr %19, null
  br i1 %20, label %52, label %54

21:                                               ; preds = %8
  %22 = load i64, ptr %1, align 8, !tbaa !32
  %23 = and i64 %22, 256
  %.not = icmp eq i64 %23, 0
  br i1 %.not, label %27, label %24

24:                                               ; preds = %21
  %25 = tail call i32 @OBJ_obj2nid(ptr noundef nonnull %15) #8
  %26 = sext i32 %25 to i64
  br label %29

27:                                               ; preds = %21
  %28 = tail call i64 @ASN1_INTEGER_get(ptr noundef nonnull %15) #8
  br label %29

29:                                               ; preds = %27, %24
  %storemerge = phi i64 [ %28, %27 ], [ %26, %24 ]
  store i64 %storemerge, ptr %4, align 8, !tbaa !38
  %30 = getelementptr inbounds nuw i8, ptr %11, i64 16
  %31 = load ptr, ptr %30, align 8, !tbaa !39
  %.not29 = icmp eq ptr %31, null
  br i1 %.not29, label %36, label %32

32:                                               ; preds = %29
  %33 = call i32 %31(ptr noundef nonnull %4) #8
  %34 = icmp eq i32 %33, 0
  br i1 %34, label %35, label %36

35:                                               ; preds = %32
  call void @ERR_new() #8
  call void @ERR_set_debug(ptr noundef nonnull @.str, i32 noundef 261, ptr noundef nonnull @__func__.ossl_asn1_do_adb) #8
  call void (i32, i32, ptr, ...) @ERR_set_error(i32 noundef 13, i32 noundef 164, ptr noundef null) #8
  br label %54

36:                                               ; preds = %32, %29
  %37 = getelementptr inbounds nuw i8, ptr %11, i64 32
  %38 = load i64, ptr %37, align 8, !tbaa !40
  %39 = icmp sgt i64 %38, 0
  br i1 %39, label %.lr.ph, label %._crit_edge

.lr.ph:                                           ; preds = %36
  %40 = getelementptr inbounds nuw i8, ptr %11, i64 24
  %41 = load ptr, ptr %40, align 8, !tbaa !41
  %42 = load i64, ptr %4, align 8, !tbaa !38
  br label %43

43:                                               ; preds = %.lr.ph, %48
  %indvars.iv = phi i64 [ 0, %.lr.ph ], [ %indvars.iv.next, %48 ]
  %.02433 = phi ptr [ %41, %.lr.ph ], [ %49, %48 ]
  %44 = load i64, ptr %.02433, align 8, !tbaa !42
  %45 = icmp eq i64 %44, %42
  br i1 %45, label %46, label %48

46:                                               ; preds = %43
  %47 = getelementptr inbounds nuw i8, ptr %.02433, i64 8
  br label %54

48:                                               ; preds = %43
  %indvars.iv.next = add nuw nsw i64 %indvars.iv, 1
  %49 = getelementptr inbounds nuw i8, ptr %.02433, i64 48
  %exitcond.not = icmp eq i64 %indvars.iv.next, %38
  br i1 %exitcond.not, label %._crit_edge, label %43, !llvm.loop !44

._crit_edge:                                      ; preds = %48, %36
  %50 = getelementptr inbounds nuw i8, ptr %11, i64 40
  %51 = load ptr, ptr %50, align 8, !tbaa !46
  %.not30 = icmp eq ptr %51, null
  br i1 %.not30, label %52, label %54

52:                                               ; preds = %._crit_edge, %17
  %.not31 = icmp eq i32 %2, 0
  br i1 %.not31, label %54, label %53

53:                                               ; preds = %52
  call void @ERR_new() #8
  call void @ERR_set_debug(ptr noundef nonnull @.str, i32 noundef 286, ptr noundef nonnull @__func__.ossl_asn1_do_adb) #8
  call void (i32, i32, ptr, ...) @ERR_set_error(i32 noundef 13, i32 noundef 164, ptr noundef null) #8
  br label %54

54:                                               ; preds = %52, %53, %._crit_edge, %17, %3, %46, %35
  %.023 = phi ptr [ null, %35 ], [ %47, %46 ], [ %1, %3 ], [ %19, %17 ], [ %51, %._crit_edge ], [ null, %53 ], [ null, %52 ]
  call void @llvm.lifetime.end.p0(i64 8, ptr nonnull %4) #8
  ret ptr %.023
}